target datalayout = "e-m:e-p270:32:32-p271:32:32-p272:64:64-i64:64-i128:128-f80:128-n8:16:32:64-S128"
target triple = "x86_64-pc-linux-gnu"

%"class.llvm::StringRef" = type { ptr, i64 }
%"class.llvm::gi::Pattern" = type { ptr, i32, %"class.llvm::StringRef" }

@.str.19 = private unnamed_addr constant [17 x i8] c"AnyOpcodePattern\00", align 1
@.str.20 = private unnamed_addr constant [11 x i8] c"CXXPattern\00", align 1
@.str.21 = private unnamed_addr constant [26 x i8] c"CodeGenInstructionPattern\00", align 1
@.str.22 = private unnamed_addr constant [15 x i8] c"PatFragPattern\00", align 1
@.str.23 = private unnamed_addr constant [15 x i8] c"BuiltinPattern\00", align 1

; Function Attrs: mustprogress nounwind uwtable
define dso_local noundef ptr @_ZNK4llvm2gi7Pattern11getKindNameEv(ptr noundef nonnull align 8 dereferenceable(32) %0) #0 align 2 {
  %2 = alloca ptr, align 8
  %3 = alloca ptr, align 8
  store ptr %0, ptr %3, align 8
  %4 = load ptr, ptr %3, align 8
  %5 = getelementptr inbounds nuw %"class.llvm::gi::Pattern", ptr %4, i32 0, i32 1
  %6 = load i32, ptr %5, align 8
  switch i32 %6, label %12 [
    i32 0, label %7
    i32 1, label %8
    i32 2, label %9
    i32 3, label %10
    i32 4, label %11
  ]

7:                                                ; preds = %1
  store ptr @.str.19, ptr %2, align 8
  br label %13

8:                                                ; preds = %1
  store ptr @.str.20, ptr %2, align 8
  br label %13

9:                                                ; preds = %1
  store ptr @.str.21, ptr %2, align 8
  br label %13

10:                                               ; preds = %1
  store ptr @.str.22, ptr %2, align 8
  br label %13

11:                                               ; preds = %1
  store ptr @.str.23, ptr %2, align 8
  br label %13

12:                                               ; preds = %1
  unreachable

13:                                               ; preds = %11, %10, %9, %8, %7
  %14 = load ptr, ptr %2, align 8
  ret ptr %14
}