; Function Attrs: mustprogress nofree norecurse nosync nounwind willreturn memory(argmem: read) uwtable
define dso_local noundef nonnull ptr @_ZNK4llvm2gi7Pattern11getKindNameEv(ptr nocapture noundef nonnull readonly align 8 dereferenceable(32) %0) local_unnamed_addr #4 align 2 {
switch.lookup:
  %1 = getelementptr inbounds nuw i8, ptr %0, i64 8
  %2 = load i32, ptr %1, align 8
  %3 = sext i32 %2 to i64
  %switch.gep = getelementptr inbounds [5 x ptr], ptr @switch.table._ZNK4llvm2gi7Pattern9printImplERNS_11raw_ostreamEbNS_12function_refIFvvEEE, i64 0, i64 %3
  %switch.load = load ptr, ptr %switch.gep, align 8
  ret ptr %switch.load
}